target datalayout = "e-m:e-p270:32:32-p271:32:32-p272:64:64-i64:64-i128:128-f80:128-n8:16:32:64-S128"
target triple = "x86_64-unknown-linux-gnu"

%"class.llvh::Twine" = type <{ %"union.llvh::Twine::Child", %"union.llvh::Twine::Child", i8, i8, [6 x i8] }>
%"union.llvh::Twine::Child" = type { ptr }
%"class.std::error_code" = type { i32, ptr }

@.str.6 = private unnamed_addr constant [8 x i8] c"-%%%%%%\00", align 1

; Function Attrs: mustprogress nounwind uwtable
define linkonce_odr hidden noundef zeroext i1 @_ZNK4llvh5Twine9isNullaryEv(ptr noundef nonnull align 8 dereferenceable(18) %this) #0 comdat align 2 {
entry:
  %this.addr = alloca ptr, align 8
  store ptr %this, ptr %this.addr, align 8
  %this1 = load ptr, ptr %this.addr, align 8
  %call = call noundef zeroext i1 @_ZNK4llvh5Twine6isNullEv(ptr noundef nonnull align 8 dereferenceable(18) %this1)
  br i1 %call, label %lor.end, label %lor.rhs

lor.rhs:                                          ; preds = %entry
  %call2 = call noundef zeroext i1 @_ZNK4llvh5Twine7isEmptyEv(ptr noundef nonnull align 8 dereferenceable(18) %this1)
  br label %lor.end

lor.end:                                          ; preds = %lor.rhs, %entry
  %0 = phi i1 [ true, %entry ], [ %call2, %lor.rhs ]
  ret i1 %0
}

; Function Attrs: mustprogress nounwind uwtable
define linkonce_odr hidden noundef zeroext i8 @_ZNK4llvh5Twine10getRHSKindEv(ptr noundef nonnull align 8 dereferenceable(18) %this) #0 comdat align 2 {
entry:
  %this.addr = alloca ptr, align 8
  store ptr %this, ptr %this.addr, align 8
  %this1 = load ptr, ptr %this.addr, align 8
  %RHSKind = getelementptr inbounds %"class.llvh::Twine", ptr %this1, i32 0, i32 3
  %0 = load i8, ptr %RHSKind, align 1
  ret i8 %0
}

; Function Attrs: mustprogress nounwind uwtable
define linkonce_odr hidden void @_ZN4llvh5TwineC2ENS0_5ChildENS0_8NodeKindES1_S2_(ptr noundef nonnull align 8 dereferenceable(18) %this, ptr %LHS.coerce, i8 noundef zeroext %LHSKind, ptr %RHS.coerce, i8 noundef zeroext %RHSKind) unnamed_addr #0 comdat align 2 {
entry:
  %LHS = alloca %"union.llvh::Twine::Child", align 8
  %RHS = alloca %"union.llvh::Twine::Child", align 8
  %this.addr = alloca ptr, align 8
  %LHSKind.addr = alloca i8, align 1
  %RHSKind.addr = alloca i8, align 1
  %coerce.dive = getelementptr inbounds %"union.llvh::Twine::Child", ptr %LHS, i32 0, i32 0
  store ptr %LHS.coerce, ptr %coerce.dive, align 8
  %coerce.dive1 = getelementptr inbounds %"union.llvh::Twine::Child", ptr %RHS, i32 0, i32 0
  store ptr %RHS.coerce, ptr %coerce.dive1, align 8
  store ptr %this, ptr %this.addr, align 8
  store i8 %LHSKind, ptr %LHSKind.addr, align 1
  store i8 %RHSKind, ptr %RHSKind.addr, align 1
  %this2 = load ptr, ptr %this.addr, align 8
  %LHS3 = getelementptr inbounds %"class.llvh::Twine", ptr %this2, i32 0, i32 0
  call void @llvm.memcpy.p0.p0.i64(ptr align 8 %LHS3, ptr align 8 %LHS, i64 8, i1 false)
  %RHS4 = getelementptr inbounds %"class.llvh::Twine", ptr %this2, i32 0, i32 1
  call void @llvm.memcpy.p0.p0.i64(ptr align 8 %RHS4, ptr align 8 %RHS, i64 8, i1 false)
  %LHSKind5 = getelementptr inbounds %"class.llvh::Twine", ptr %this2, i32 0, i32 2
  %0 = load i8, ptr %LHSKind.addr, align 1
  store i8 %0, ptr %LHSKind5, align 8
  %RHSKind6 = getelementptr inbounds %"class.llvh::Twine", ptr %this2, i32 0, i32 3
  %1 = load i8, ptr %RHSKind.addr, align 1
  store i8 %1, ptr %RHSKind6, align 1
  ret void
}

; Function Attrs: mustprogress nounwind uwtable
define linkonce_odr hidden noundef zeroext i8 @_ZNK4llvh5Twine10getLHSKindEv(ptr noundef nonnull align 8 dereferenceable(18) %this) #0 comdat align 2 {
entry:
  %this.addr = alloca ptr, align 8
  store ptr %this, ptr %this.addr, align 8
  %this1 = load ptr, ptr %this.addr, align 8
  %LHSKind = getelementptr inbounds %"class.llvh::Twine", ptr %this1, i32 0, i32 2
  %0 = load i8, ptr %LHSKind, align 8
  ret i8 %0
}

; Function Attrs: mustprogress nounwind uwtable
define linkonce_odr hidden noundef zeroext i1 @_ZNK4llvh5Twine7isUnaryEv(ptr noundef nonnull align 8 dereferenceable(18) %this) #0 comdat align 2 {
entry:
  %this.addr = alloca ptr, align 8
  store ptr %this, ptr %this.addr, align 8
  %this1 = load ptr, ptr %this.addr, align 8
  %call = call noundef zeroext i8 @_ZNK4llvh5Twine10getRHSKindEv(ptr noundef nonnull align 8 dereferenceable(18) %this1)
  %conv = zext i8 %call to i32
  %cmp = icmp eq i32 %conv, 1
  br i1 %cmp, label %land.rhs, label %land.end

land.rhs:                                         ; preds = %entry
  %call2 = call noundef zeroext i1 @_ZNK4llvh5Twine9isNullaryEv(ptr noundef nonnull align 8 dereferenceable(18) %this1)
  %lnot = xor i1 %call2, true
  br label %land.end

land.end:                                         ; preds = %land.rhs, %entry
  %0 = phi i1 [ false, %entry ], [ %lnot, %land.rhs ]
  ret i1 %0
}

; Function Attrs: mustprogress nounwind uwtable
define linkonce_odr hidden noundef zeroext i1 @_ZNK4llvh5Twine7isEmptyEv(ptr noundef nonnull align 8 dereferenceable(18) %this) #0 comdat align 2 {
entry:
  %this.addr = alloca ptr, align 8
  store ptr %this, ptr %this.addr, align 8
  %this1 = load ptr, ptr %this.addr, align 8
  %call = call noundef zeroext i8 @_ZNK4llvh5Twine10getLHSKindEv(ptr noundef nonnull align 8 dereferenceable(18) %this1)
  %conv = zext i8 %call to i32
  %cmp = icmp eq i32 %conv, 1
  ret i1 %cmp
}

; Function Attrs: mustprogress nounwind uwtable
define linkonce_odr hidden void @_ZN4llvh5TwineC2ENS0_8NodeKindE(ptr noundef nonnull align 8 dereferenceable(18) %this, i8 noundef zeroext %Kind) unnamed_addr #0 comdat align 2 {
entry:
  %this.addr = alloca ptr, align 8
  %Kind.addr = alloca i8, align 1
  store ptr %this, ptr %this.addr, align 8
  store i8 %Kind, ptr %Kind.addr, align 1
  %this1 = load ptr, ptr %this.addr, align 8
  %LHSKind = getelementptr inbounds %"class.llvh::Twine", ptr %this1, i32 0, i32 2
  %0 = load i8, ptr %Kind.addr, align 1
  store i8 %0, ptr %LHSKind, align 8
  %RHSKind = getelementptr inbounds %"class.llvh::Twine", ptr %this1, i32 0, i32 3
  store i8 1, ptr %RHSKind, align 1
  ret void
}

; Function Attrs: mustprogress nounwind uwtable
define linkonce_odr hidden noundef zeroext i1 @_ZNK4llvh5Twine6isNullEv(ptr noundef nonnull align 8 dereferenceable(18) %this) #0 comdat align 2 {
entry:
  %this.addr = alloca ptr, align 8
  store ptr %this, ptr %this.addr, align 8
  %this1 = load ptr, ptr %this.addr, align 8
  %call = call noundef zeroext i8 @_ZNK4llvh5Twine10getLHSKindEv(ptr noundef nonnull align 8 dereferenceable(18) %this1)
  %conv = zext i8 %call to i32
  %cmp = icmp eq i32 %conv, 0
  ret i1 %cmp
}

; Function Attrs: mustprogress nounwind uwtable
define linkonce_odr hidden void @_ZNK4llvh5Twine6concatERKS0_(ptr noalias sret(%"class.llvh::Twine") align 8 %agg.result, ptr noundef nonnull align 8 dereferenceable(18) %this, ptr noundef nonnull align 8 dereferenceable(18) %Suffix) #0 comdat align 2 {
entry:
  %this.addr = alloca ptr, align 8
  %Suffix.addr = alloca ptr, align 8
  %NewLHS = alloca %"union.llvh::Twine::Child", align 8
  %NewRHS = alloca %"union.llvh::Twine::Child", align 8
  %NewLHSKind = alloca i8, align 1
  %NewRHSKind = alloca i8, align 1
  %agg.tmp = alloca %"union.llvh::Twine::Child", align 8
  %agg.tmp18 = alloca %"union.llvh::Twine::Child", align 8
  store ptr %this, ptr %this.addr, align 8
  store ptr %Suffix, ptr %Suffix.addr, align 8
  %this1 = load ptr, ptr %this.addr, align 8
  %call = call noundef zeroext i1 @_ZNK4llvh5Twine6isNullEv(ptr noundef nonnull align 8 dereferenceable(18) %this1)
  br i1 %call, label %if.then, label %lor.lhs.false

lor.lhs.false:                                    ; preds = %entry
  %0 = load ptr, ptr %Suffix.addr, align 8
  %call2 = call noundef zeroext i1 @_ZNK4llvh5Twine6isNullEv(ptr noundef nonnull align 8 dereferenceable(18) %0)
  br i1 %call2, label %if.then, label %if.end

if.then:                                          ; preds = %lor.lhs.false, %entry
  call void @_ZN4llvh5TwineC2ENS0_8NodeKindE(ptr noundef nonnull align 8 dereferenceable(18) %agg.result, i8 noundef zeroext 0)
  br label %return

if.end:                                           ; preds = %lor.lhs.false
  %call3 = call noundef zeroext i1 @_ZNK4llvh5Twine7isEmptyEv(ptr noundef nonnull align 8 dereferenceable(18) %this1)
  br i1 %call3, label %if.then4, label %if.end5

if.then4:                                         ; preds = %if.end
  %1 = load ptr, ptr %Suffix.addr, align 8
  call void @llvm.memcpy.p0.p0.i64(ptr align 8 %agg.result, ptr align 8 %1, i64 24, i1 false)
  br label %return

if.end5:                                          ; preds = %if.end
  %2 = load ptr, ptr %Suffix.addr, align 8
  %call6 = call noundef zeroext i1 @_ZNK4llvh5Twine7isEmptyEv(ptr noundef nonnull align 8 dereferenceable(18) %2)
  br i1 %call6, label %if.then7, label %if.end8

if.then7:                                         ; preds = %if.end5
  call void @llvm.memcpy.p0.p0.i64(ptr align 8 %agg.result, ptr align 8 %this1, i64 24, i1 false)
  br label %return

if.end8:                                          ; preds = %if.end5
  store ptr %this1, ptr %NewLHS, align 8
  %3 = load ptr, ptr %Suffix.addr, align 8
  store ptr %3, ptr %NewRHS, align 8
  store i8 2, ptr %NewLHSKind, align 1
  store i8 2, ptr %NewRHSKind, align 1
  %call9 = call noundef zeroext i1 @_ZNK4llvh5Twine7isUnaryEv(ptr noundef nonnull align 8 dereferenceable(18) %this1)
  br i1 %call9, label %if.then10, label %if.end12

if.then10:                                        ; preds = %if.end8
  %LHS = getelementptr inbounds %"class.llvh::Twine", ptr %this1, i32 0, i32 0
  call void @llvm.memcpy.p0.p0.i64(ptr align 8 %NewLHS, ptr align 8 %LHS, i64 8, i1 false)
  %call11 = call noundef zeroext i8 @_ZNK4llvh5Twine10getLHSKindEv(ptr noundef nonnull align 8 dereferenceable(18) %this1)
  store i8 %call11, ptr %NewLHSKind, align 1
  br label %if.end12

if.end12:                                         ; preds = %if.then10, %if.end8
  %4 = load ptr, ptr %Suffix.addr, align 8
  %call13 = call noundef zeroext i1 @_ZNK4llvh5Twine7isUnaryEv(ptr noundef nonnull align 8 dereferenceable(18) %4)
  br i1 %call13, label %if.then14, label %if.end17

if.then14:                                        ; preds = %if.end12
  %5 = load ptr, ptr %Suffix.addr, align 8
  %LHS15 = getelementptr inbounds %"class.llvh::Twine", ptr %5, i32 0, i32 0
  call void @llvm.memcpy.p0.p0.i64(ptr align 8 %NewRHS, ptr align 8 %LHS15, i64 8, i1 false)
  %6 = load ptr, ptr %Suffix.addr, align 8
  %call16 = call noundef zeroext i8 @_ZNK4llvh5Twine10getLHSKindEv(ptr noundef nonnull align 8 dereferenceable(18) %6)
  store i8 %call16, ptr %NewRHSKind, align 1
  br label %if.end17

if.end17:                                         ; preds = %if.then14, %if.end12
  call void @llvm.memcpy.p0.p0.i64(ptr align 8 %agg.tmp, ptr align 8 %NewLHS, i64 8, i1 false)
  %7 = load i8, ptr %NewLHSKind, align 1
  call void @llvm.memcpy.p0.p0.i64(ptr align 8 %agg.tmp18, ptr align 8 %NewRHS, i64 8, i1 false)
  %8 = load i8, ptr %NewRHSKind, align 1
  %coerce.dive = getelementptr inbounds %"union.llvh::Twine::Child", ptr %agg.tmp, i32 0, i32 0
  %9 = load ptr, ptr %coerce.dive, align 8
  %coerce.dive19 = getelementptr inbounds %"union.llvh::Twine::Child", ptr %agg.tmp18, i32 0, i32 0
  %10 = load ptr, ptr %coerce.dive19, align 8
  call void @_ZN4llvh5TwineC2ENS0_5ChildENS0_8NodeKindES1_S2_(ptr noundef nonnull align 8 dereferenceable(18) %agg.result, ptr %9, i8 noundef zeroext %7, ptr %10, i8 noundef zeroext %8)
  br label %return

return:                                           ; preds = %if.end17, %if.then7, %if.then4, %if.then
  ret void
}

; Function Attrs: mustprogress nounwind uwtable
define linkonce_odr hidden void @_ZN4llvhplERKNS_5TwineES2_(ptr noalias sret(%"class.llvh::Twine") align 8 %agg.result, ptr noundef nonnull align 8 dereferenceable(18) %LHS, ptr noundef nonnull align 8 dereferenceable(18) %RHS) #0 comdat {
entry:
  %LHS.addr = alloca ptr, align 8
  %RHS.addr = alloca ptr, align 8
  store ptr %LHS, ptr %LHS.addr, align 8
  store ptr %RHS, ptr %RHS.addr, align 8
  %0 = load ptr, ptr %LHS.addr, align 8
  %1 = load ptr, ptr %RHS.addr, align 8
  call void @_ZNK4llvh5Twine6concatERKS0_(ptr sret(%"class.llvh::Twine") align 8 %agg.result, ptr noundef nonnull align 8 dereferenceable(18) %0, ptr noundef nonnull align 8 dereferenceable(18) %1)
  ret void
}

; Function Attrs: mustprogress nounwind uwtable
define linkonce_odr hidden void @_ZN4llvh5TwineC2EPKc(ptr noundef nonnull align 8 dereferenceable(18) %this, ptr noundef %Str) unnamed_addr #0 comdat align 2 {
entry:
  %this.addr = alloca ptr, align 8
  %Str.addr = alloca ptr, align 8
  store ptr %this, ptr %this.addr, align 8
  store ptr %Str, ptr %Str.addr, align 8
  %this1 = load ptr, ptr %this.addr, align 8
  %LHSKind = getelementptr inbounds %"class.llvh::Twine", ptr %this1, i32 0, i32 2
  store i8 1, ptr %LHSKind, align 8
  %RHSKind = getelementptr inbounds %"class.llvh::Twine", ptr %this1, i32 0, i32 3
  store i8 1, ptr %RHSKind, align 1
  %0 = load ptr, ptr %Str.addr, align 8
  %arrayidx = getelementptr inbounds i8, ptr %0, i64 0
  %1 = load i8, ptr %arrayidx, align 1
  %conv = sext i8 %1 to i32
  %cmp = icmp ne i32 %conv, 0
  br i1 %cmp, label %if.then, label %if.else

if.then:                                          ; preds = %entry
  %2 = load ptr, ptr %Str.addr, align 8
  %LHS2 = getelementptr inbounds %"class.llvh::Twine", ptr %this1, i32 0, i32 0
  store ptr %2, ptr %LHS2, align 8
  %LHSKind3 = getelementptr inbounds %"class.llvh::Twine", ptr %this1, i32 0, i32 2
  store i8 3, ptr %LHSKind3, align 8
  br label %if.end

if.else:                                          ; preds = %entry
  %LHSKind4 = getelementptr inbounds %"class.llvh::Twine", ptr %this1, i32 0, i32 2
  store i8 1, ptr %LHSKind4, align 8
  br label %if.end

if.end:                                           ; preds = %if.else, %if.then
  ret void
}

; Function Attrs: mustprogress nounwind uwtable
define hidden { i32, ptr } @_ZN4llvh3sys2fs21createUniqueDirectoryERKNS_5TwineERNS_15SmallVectorImplIcEE(ptr noundef nonnull align 8 dereferenceable(18) %Prefix, ptr noundef nonnull align 8 dereferenceable(16) %ResultPath) #0 {
entry:
  %retval = alloca %"class.std::error_code", align 8
  %Prefix.addr = alloca ptr, align 8
  %ResultPath.addr = alloca ptr, align 8
  %Dummy = alloca i32, align 4
  %ref.tmp = alloca %"class.llvh::Twine", align 8
  %ref.tmp1 = alloca %"class.llvh::Twine", align 8
  store ptr %Prefix, ptr %Prefix.addr, align 8
  store ptr %ResultPath, ptr %ResultPath.addr, align 8
  %0 = load ptr, ptr %Prefix.addr, align 8
  call void @_ZN4llvh5TwineC2EPKc(ptr noundef nonnull align 8 dereferenceable(18) %ref.tmp1, ptr noundef @.str.6)
  call void @_ZN4llvhplERKNS_5TwineES2_(ptr sret(%"class.llvh::Twine") align 8 %ref.tmp, ptr noundef nonnull align 8 dereferenceable(18) %0, ptr noundef nonnull align 8 dereferenceable(18) %ref.tmp1)
  %1 = load ptr, ptr %ResultPath.addr, align 8
  %call = call { i32, ptr } @_ZL18createUniqueEntityRKN4llvh5TwineERiRNS_15SmallVectorImplIcEEbj8FSEntityNS_3sys2fs9OpenFlagsE(ptr noundef nonnull align 8 dereferenceable(18) %ref.tmp, ptr noundef nonnull align 4 dereferenceable(4) %Dummy, ptr noundef nonnull align 8 dereferenceable(16) %1, i1 noundef zeroext true, i32 noundef 0, i32 noundef 0, i32 noundef 0)
  %2 = getelementptr inbounds { i32, ptr }, ptr %retval, i32 0, i32 0
  %3 = extractvalue { i32, ptr } %call, 0
  store i32 %3, ptr %2, align 8
  %4 = getelementptr inbounds { i32, ptr }, ptr %retval, i32 0, i32 1
  %5 = extractvalue { i32, ptr } %call, 1
  store ptr %5, ptr %4, align 8
  %6 = load { i32, ptr }, ptr %retval, align 8
  ret { i32, ptr } %6
}