; Function Attrs: mustprogress nounwind uwtable
define hidden { i32, ptr } @_ZN4llvh3sys2fs21createUniqueDirectoryERKNS_5TwineERNS_15SmallVectorImplIcEE(ptr noundef nonnull align 8 dereferenceable(18) %Prefix, ptr noundef nonnull align 8 dereferenceable(16) %ResultPath) local_unnamed_addr #0 {
entry:
  %Dummy = alloca i32, align 4
  %ref.tmp = alloca %"class.llvh::Twine", align 8
  tail call void @llvm.experimental.noalias.scope.decl(metadata !63)
  tail call void @llvm.experimental.noalias.scope.decl(metadata !66)
  %LHSKind.i.i.i.i = getelementptr inbounds i8, ptr %Prefix, i64 16
  %0 = load i8, ptr %LHSKind.i.i.i.i, align 8, !noalias !69
  switch i8 %0, label %if.end8.i.i [
    i8 0, label %_ZN4llvhplERKNS_5TwineES2_.exit
    i8 1, label %if.then4.i.i
  ]

if.then4.i.i:                                     ; preds = %entry
  store ptr @.str.6, ptr %ref.tmp, align 8
  br label %_ZN4llvhplERKNS_5TwineES2_.exit

if.end8.i.i:                                      ; preds = %entry
  %RHSKind.i.i.i.i = getelementptr inbounds i8, ptr %Prefix, i64 17
  %1 = load i8, ptr %RHSKind.i.i.i.i, align 1, !noalias !69
  %cmp.i13.i.i = icmp eq i8 %1, 1
  %NewLHS.sroa.0.0.copyload.i.i = load ptr, ptr %Prefix, align 8, !noalias !69
  %spec.select.i.i = select i1 %cmp.i13.i.i, i8 %0, i8 2
  %spec.select20.i.i = select i1 %cmp.i13.i.i, ptr %NewLHS.sroa.0.0.copyload.i.i, ptr %Prefix
  store ptr %spec.select20.i.i, ptr %ref.tmp, align 8, !alias.scope !69
  %RHS4.i.i.i = getelementptr inbounds i8, ptr %ref.tmp, i64 8
  store ptr @.str.6, ptr %RHS4.i.i.i, align 8, !alias.scope !69
  br label %_ZN4llvhplERKNS_5TwineES2_.exit

_ZN4llvhplERKNS_5TwineES2_.exit:                  ; preds = %entry, %if.then4.i.i, %if.end8.i.i
  %.sink2 = phi i8 [ 3, %if.then4.i.i ], [ %spec.select.i.i, %if.end8.i.i ], [ %0, %entry ]
  %.sink = phi i8 [ 1, %if.then4.i.i ], [ 3, %if.end8.i.i ], [ 1, %entry ]
  %LHSKind.i.i.i = getelementptr inbounds i8, ptr %ref.tmp, i64 16
  store i8 %.sink2, ptr %LHSKind.i.i.i, align 8
  %RHSKind.i.i.i = getelementptr inbounds i8, ptr %ref.tmp, i64 17
  store i8 %.sink, ptr %RHSKind.i.i.i, align 1
  %call = call fastcc { i32, ptr } @_ZL18createUniqueEntityRKN4llvh5TwineERiRNS_15SmallVectorImplIcEEbj8FSEntityNS_3sys2fs9OpenFlagsE(ptr noundef nonnull align 8 dereferenceable(18) %ref.tmp, ptr noundef nonnull align 4 dereferenceable(4) %Dummy, ptr noundef nonnull align 8 dereferenceable(16) %ResultPath, i1 noundef zeroext true, i32 noundef 0, i32 noundef 0, i32 noundef 0)
  ret { i32, ptr } %call
}